target datalayout = "e-m:e-p270:32:32-p271:32:32-p272:64:64-i64:64-i128:128-f80:128-n8:16:32:64-S128"
target triple = "x86_64-pc-linux-gnu"

%struct.pmix_object_t = type { %union.pthread_mutex_t, ptr, i32, %struct.pmix_tma }
%union.pthread_mutex_t = type { %struct.__pthread_mutex_s }
%struct.__pthread_mutex_s = type { i32, i32, i32, i32, i32, i16, i16, %struct.__pthread_internal_list }
%struct.__pthread_internal_list = type { ptr, ptr }
%struct.pmix_tma = type { ptr, ptr, ptr, ptr, ptr, ptr, ptr, ptr }
%struct.pmix_value = type { i16, %union.anon }
%union.anon = type { %struct.pmix_envar_t }
%struct.pmix_envar_t = type { ptr, ptr, i8 }
%struct.myxfer_t = type { %struct.prte_pmix_lock_t, ptr, i64 }
%struct.prte_pmix_lock_t = type { %struct.pmix_mutex_t, %union.pthread_cond_t, i8, i32, ptr }
%struct.pmix_mutex_t = type { %struct.pmix_object_t, %union.pthread_mutex_t }
%union.pthread_cond_t = type { %struct.__pthread_cond_s }
%struct.__pthread_cond_s = type { %union.__atomic_wide_counter, %union.__atomic_wide_counter, [2 x i32], [2 x i32], i32, i32, [2 x i32] }
%union.__atomic_wide_counter = type { i64 }
%struct.pmix_info = type { [512 x i8], i32, %struct.pmix_value }

; Function Attrs: inlinehint nounwind uwtable
define internal void @pmix_mutex_unlock(ptr noundef %0) #6 {
  %2 = alloca ptr, align 8
  store ptr %0, ptr %2, align 8, !tbaa !139
  %3 = load ptr, ptr %2, align 8, !tbaa !139
  %4 = getelementptr inbounds nuw %struct.pmix_mutex_t, ptr %3, i32 0, i32 1
  %5 = call i32 @pthread_mutex_unlock(ptr noundef %4) #12
  ret void
}

; Function Attrs: inlinehint nounwind uwtable
define internal void @pmix_atomic_wmb() #6 {
  fence release
  ret void
}

; Function Attrs: inlinehint nounwind uwtable
define internal void @pmix_mutex_lock(ptr noundef %0) #6 {
  %2 = alloca ptr, align 8
  store ptr %0, ptr %2, align 8, !tbaa !139
  %3 = load ptr, ptr %2, align 8, !tbaa !139
  %4 = getelementptr inbounds nuw %struct.pmix_mutex_t, ptr %3, i32 0, i32 1
  %5 = call i32 @pthread_mutex_lock(ptr noundef %4) #12
  ret void
}

; Function Attrs: nounwind uwtable
define internal void @infocbfunc(i32 noundef %0, ptr noundef %1, i64 noundef %2, ptr noundef %3, ptr noundef %4, ptr noundef %5) #0 {
  %7 = alloca i32, align 4
  %8 = alloca ptr, align 8
  %9 = alloca i64, align 8
  %10 = alloca ptr, align 8
  %11 = alloca ptr, align 8
  %12 = alloca ptr, align 8
  %13 = alloca ptr, align 8
  %14 = alloca i64, align 8
  store i32 %0, ptr %7, align 4, !tbaa !4
  store ptr %1, ptr %8, align 8, !tbaa !137
  store i64 %2, ptr %9, align 8, !tbaa !13
  store ptr %3, ptr %10, align 8, !tbaa !21
  store ptr %4, ptr %11, align 8, !tbaa !21
  store ptr %5, ptr %12, align 8, !tbaa !21
  call void @llvm.lifetime.start.p0(i64 8, ptr %13) #12
  %15 = load ptr, ptr %10, align 8, !tbaa !21
  store ptr %15, ptr %13, align 8, !tbaa !21
  call void @llvm.lifetime.start.p0(i64 8, ptr %14) #12
  %16 = load ptr, ptr %8, align 8, !tbaa !137
  %17 = icmp ne ptr null, %16
  br i1 %17, label %18, label %46

18:                                               ; preds = %6
  %19 = load i64, ptr %9, align 8, !tbaa !13
  %20 = load ptr, ptr %13, align 8, !tbaa !21
  %21 = getelementptr inbounds nuw %struct.myxfer_t, ptr %20, i32 0, i32 2
  store i64 %19, ptr %21, align 8, !tbaa !103
  %22 = load ptr, ptr %13, align 8, !tbaa !21
  %23 = getelementptr inbounds nuw %struct.myxfer_t, ptr %22, i32 0, i32 2
  %24 = load i64, ptr %23, align 8, !tbaa !103
  %25 = call ptr @PMIx_Info_create(i64 noundef %24)
  %26 = load ptr, ptr %13, align 8, !tbaa !21
  %27 = getelementptr inbounds nuw %struct.myxfer_t, ptr %26, i32 0, i32 1
  store ptr %25, ptr %27, align 8, !tbaa !102
  store i64 0, ptr %14, align 8, !tbaa !13
  br label %28

28:                                               ; preds = %42, %18
  %29 = load i64, ptr %14, align 8, !tbaa !13
  %30 = load i64, ptr %9, align 8, !tbaa !13
  %31 = icmp ult i64 %29, %30
  br i1 %31, label %32, label %45

32:                                               ; preds = %28
  %33 = load ptr, ptr %13, align 8, !tbaa !21
  %34 = getelementptr inbounds nuw %struct.myxfer_t, ptr %33, i32 0, i32 1
  %35 = load ptr, ptr %34, align 8, !tbaa !102
  %36 = load i64, ptr %14, align 8, !tbaa !13
  %37 = getelementptr inbounds nuw %struct.pmix_info, ptr %35, i64 %36
  %38 = load ptr, ptr %8, align 8, !tbaa !137
  %39 = load i64, ptr %14, align 8, !tbaa !13
  %40 = getelementptr inbounds nuw %struct.pmix_info, ptr %38, i64 %39
  %41 = call i32 @PMIx_Info_xfer(ptr noundef %37, ptr noundef %40)
  br label %42

42:                                               ; preds = %32
  %43 = load i64, ptr %14, align 8, !tbaa !13
  %44 = add i64 %43, 1
  store i64 %44, ptr %14, align 8, !tbaa !13
  br label %28, !llvm.loop !138

45:                                               ; preds = %28
  br label %46

46:                                               ; preds = %45, %6
  %47 = load ptr, ptr %11, align 8, !tbaa !21
  %48 = icmp ne ptr null, %47
  br i1 %48, label %49, label %52

49:                                               ; preds = %46
  %50 = load ptr, ptr %11, align 8, !tbaa !21
  %51 = load ptr, ptr %12, align 8, !tbaa !21
  call void %50(ptr noundef %51)
  br label %52

52:                                               ; preds = %49, %46
  br label %53

53:                                               ; preds = %52
  %54 = load ptr, ptr %13, align 8, !tbaa !21
  %55 = getelementptr inbounds nuw %struct.myxfer_t, ptr %54, i32 0, i32 0
  %56 = getelementptr inbounds nuw %struct.prte_pmix_lock_t, ptr %55, i32 0, i32 0
  call void @pmix_mutex_lock(ptr noundef %56)
  %57 = load ptr, ptr %13, align 8, !tbaa !21
  %58 = getelementptr inbounds nuw %struct.myxfer_t, ptr %57, i32 0, i32 0
  %59 = getelementptr inbounds nuw %struct.prte_pmix_lock_t, ptr %58, i32 0, i32 2
  store volatile i8 0, ptr %59, align 8, !tbaa !94
  call void @pmix_atomic_wmb()
  %60 = load ptr, ptr %13, align 8, !tbaa !21
  %61 = getelementptr inbounds nuw %struct.myxfer_t, ptr %60, i32 0, i32 0
  %62 = getelementptr inbounds nuw %struct.prte_pmix_lock_t, ptr %61, i32 0, i32 1
  %63 = call i32 @pthread_cond_broadcast(ptr noundef %62) #12
  %64 = load ptr, ptr %13, align 8, !tbaa !21
  %65 = getelementptr inbounds nuw %struct.myxfer_t, ptr %64, i32 0, i32 0
  %66 = getelementptr inbounds nuw %struct.prte_pmix_lock_t, ptr %65, i32 0, i32 0
  call void @pmix_mutex_unlock(ptr noundef %66)
  br label %67

67:                                               ; preds = %53
  br label %68

68:                                               ; preds = %67
  call void @llvm.lifetime.end.p0(i64 8, ptr %14) #12
  call void @llvm.lifetime.end.p0(i64 8, ptr %13) #12
  ret void
}