; Function Attrs: nounwind uwtable
define internal void @infocbfunc(i32 %0, ptr noundef %1, i64 noundef %2, ptr noundef %3, ptr noundef readonly captures(address_is_null) %4, ptr noundef %5) #0 {
  %.not = icmp eq ptr %1, null
  br i1 %.not, label %.loopexit, label %7

7:                                                ; preds = %6
  %8 = getelementptr inbounds nuw i8, ptr %3, i64 232
  store i64 %2, ptr %8, align 8, !tbaa !102
  %9 = tail call ptr @PMIx_Info_create(i64 noundef %2) #19
  %10 = getelementptr inbounds nuw i8, ptr %3, i64 224
  store ptr %9, ptr %10, align 8, !tbaa !101
  %.not23 = icmp eq i64 %2, 0
  br i1 %.not23, label %.loopexit, label %.lr.ph

.lr.ph:                                           ; preds = %7, %.lr.ph
  %.022 = phi i64 [ %15, %.lr.ph ], [ 0, %7 ]
  %11 = load ptr, ptr %10, align 8, !tbaa !101
  %12 = getelementptr inbounds nuw %struct.pmix_info, ptr %11, i64 %.022
  %13 = getelementptr inbounds nuw %struct.pmix_info, ptr %1, i64 %.022
  %14 = tail call i32 @PMIx_Info_xfer(ptr noundef %12, ptr noundef nonnull %13) #19
  %15 = add nuw i64 %.022, 1
  %exitcond.not = icmp eq i64 %15, %2
  br i1 %exitcond.not, label %.loopexit, label %.lr.ph, !llvm.loop !118

.loopexit:                                        ; preds = %.lr.ph, %7, %6
  %.not21 = icmp eq ptr %4, null
  br i1 %.not21, label %17, label %16

16:                                               ; preds = %.loopexit
  tail call void %4(ptr noundef %5) #19
  br label %17

17:                                               ; preds = %.loopexit, %16
  %18 = getelementptr inbounds nuw i8, ptr %3, i64 120
  %19 = tail call i32 @pthread_mutex_lock(ptr noundef nonnull %18) #19
  %20 = getelementptr inbounds nuw i8, ptr %3, i64 208
  store volatile i8 0, ptr %20, align 8, !tbaa !93
  fence release
  %21 = getelementptr inbounds nuw i8, ptr %3, i64 160
  %22 = tail call i32 @pthread_cond_broadcast(ptr noundef nonnull %21) #19
  %23 = tail call i32 @pthread_mutex_unlock(ptr noundef nonnull %18) #19
  ret void
}